target datalayout = "e-m:e-p270:32:32-p271:32:32-p272:64:64-i64:64-i128:128-f80:128-n8:16:32:64-S128"
target triple = "x86_64-pc-linux-gnu"

%struct.DdNode = type { i32, i32, ptr, %union.anon, i64 }
%union.anon = type { %struct.DdChildren }
%struct.DdChildren = type { ptr, ptr }

; Function Attrs: nounwind uwtable
define internal i32 @cuddNodeArrayRecur(ptr noundef %0, ptr noundef %1, i32 noundef %2) #0 {
  %4 = alloca i32, align 4
  %5 = alloca ptr, align 8
  %6 = alloca ptr, align 8
  %7 = alloca i32, align 4
  %8 = alloca i32, align 4
  %9 = alloca i32, align 4
  store ptr %0, ptr %5, align 8
  store ptr %1, ptr %6, align 8
  store i32 %2, ptr %7, align 4
  %10 = load ptr, ptr %5, align 8
  %11 = getelementptr inbounds %struct.DdNode, ptr %10, i32 0, i32 2
  %12 = load ptr, ptr %11, align 8
  %13 = ptrtoint ptr %12 to i64
  %14 = and i64 %13, 1
  %15 = trunc i64 %14 to i32
  %16 = icmp ne i32 %15, 0
  br i1 %16, label %19, label %17

17:                                               ; preds = %3
  %18 = load i32, ptr %7, align 4
  store i32 %18, ptr %4, align 4
  br label %65

19:                                               ; preds = %3
  %20 = load ptr, ptr %5, align 8
  %21 = getelementptr inbounds %struct.DdNode, ptr %20, i32 0, i32 2
  %22 = load ptr, ptr %21, align 8
  %23 = ptrtoint ptr %22 to i64
  %24 = and i64 %23, -2
  %25 = inttoptr i64 %24 to ptr
  %26 = load ptr, ptr %5, align 8
  %27 = getelementptr inbounds %struct.DdNode, ptr %26, i32 0, i32 2
  store ptr %25, ptr %27, align 8
  %28 = load ptr, ptr %5, align 8
  %29 = getelementptr inbounds %struct.DdNode, ptr %28, i32 0, i32 0
  %30 = load i32, ptr %29, align 8
  %31 = icmp eq i32 %30, 2147483647
  br i1 %31, label %32, label %40

32:                                               ; preds = %19
  %33 = load ptr, ptr %5, align 8
  %34 = load ptr, ptr %6, align 8
  %35 = load i32, ptr %7, align 4
  %36 = sext i32 %35 to i64
  %37 = getelementptr inbounds ptr, ptr %34, i64 %36
  store ptr %33, ptr %37, align 8
  %38 = load i32, ptr %7, align 4
  %39 = add nsw i32 %38, 1
  store i32 %39, ptr %4, align 4
  br label %65

40:                                               ; preds = %19
  %41 = load ptr, ptr %5, align 8
  %42 = getelementptr inbounds %struct.DdNode, ptr %41, i32 0, i32 3
  %43 = getelementptr inbounds %struct.DdChildren, ptr %42, i32 0, i32 0
  %44 = load ptr, ptr %43, align 8
  %45 = load ptr, ptr %6, align 8
  %46 = load i32, ptr %7, align 4
  %47 = call i32 @cuddNodeArrayRecur(ptr noundef %44, ptr noundef %45, i32 noundef %46)
  store i32 %47, ptr %8, align 4
  %48 = load ptr, ptr %5, align 8
  %49 = getelementptr inbounds %struct.DdNode, ptr %48, i32 0, i32 3
  %50 = getelementptr inbounds %struct.DdChildren, ptr %49, i32 0, i32 1
  %51 = load ptr, ptr %50, align 8
  %52 = ptrtoint ptr %51 to i64
  %53 = and i64 %52, -2
  %54 = inttoptr i64 %53 to ptr
  %55 = load ptr, ptr %6, align 8
  %56 = load i32, ptr %8, align 4
  %57 = call i32 @cuddNodeArrayRecur(ptr noundef %54, ptr noundef %55, i32 noundef %56)
  store i32 %57, ptr %9, align 4
  %58 = load ptr, ptr %5, align 8
  %59 = load ptr, ptr %6, align 8
  %60 = load i32, ptr %9, align 4
  %61 = sext i32 %60 to i64
  %62 = getelementptr inbounds ptr, ptr %59, i64 %61
  store ptr %58, ptr %62, align 8
  %63 = load i32, ptr %9, align 4
  %64 = add nsw i32 %63, 1
  store i32 %64, ptr %4, align 4
  br label %65

65:                                               ; preds = %40, %32, %17
  %66 = load i32, ptr %4, align 4
  ret i32 %66
}