; Function Attrs: nofree nosync nounwind memory(readwrite, inaccessiblemem: none) uwtable
define internal fastcc i32 @cuddNodeArrayRecur(ptr noundef %0, ptr noundef nonnull %1, i32 noundef %2) unnamed_addr #6 {
  %4 = getelementptr inbounds nuw i8, ptr %0, i64 8
  %5 = load ptr, ptr %4, align 8
  %6 = ptrtoint ptr %5 to i64
  %7 = and i64 %6, 1
  %.not = icmp eq i64 %7, 0
  br i1 %.not, label %common.ret, label %8

8:                                                ; preds = %3
  %9 = and i64 %6, -2
  %10 = inttoptr i64 %9 to ptr
  store ptr %10, ptr %4, align 8
  %11 = load i32, ptr %0, align 8
  %12 = icmp eq i32 %11, 2147483647
  br i1 %12, label %common.ret.sink.split, label %16

common.ret.sink.split:                            ; preds = %8, %16
  %.sink21 = phi i32 [ %25, %16 ], [ %2, %8 ]
  %13 = sext i32 %.sink21 to i64
  %14 = getelementptr inbounds ptr, ptr %1, i64 %13
  store ptr %0, ptr %14, align 8
  %15 = add nsw i32 %.sink21, 1
  br label %common.ret

common.ret:                                       ; preds = %common.ret.sink.split, %3
  %common.ret.op = phi i32 [ %2, %3 ], [ %15, %common.ret.sink.split ]
  ret i32 %common.ret.op

16:                                               ; preds = %8
  %17 = getelementptr inbounds nuw i8, ptr %0, i64 16
  %18 = load ptr, ptr %17, align 8
  %19 = tail call fastcc i32 @cuddNodeArrayRecur(ptr noundef %18, ptr noundef %1, i32 noundef %2)
  %20 = getelementptr inbounds nuw i8, ptr %0, i64 24
  %21 = load ptr, ptr %20, align 8
  %22 = ptrtoint ptr %21 to i64
  %23 = and i64 %22, -2
  %24 = inttoptr i64 %23 to ptr
  %25 = tail call fastcc i32 @cuddNodeArrayRecur(ptr noundef %24, ptr noundef %1, i32 noundef %19)
  br label %common.ret.sink.split
}